target datalayout = "e-m:e-p270:32:32-p271:32:32-p272:64:64-i64:64-i128:128-f80:128-n8:16:32:64-S128"
target triple = "x86_64-pc-linux-gnu"

@.str = private unnamed_addr constant [28 x i8] c"../openssl/test/rand_test.c\00", align 1
@.str.1 = private unnamed_addr constant [34 x i8] c"configfile = test_get_argument(0)\00", align 1
@.str.2 = private unnamed_addr constant [61 x i8] c"RAND_set_DRBG_type(NULL, \22TEST-RAND\22, \22fips=no\22, NULL, NULL)\00", align 1
@.str.3 = private unnamed_addr constant [10 x i8] c"TEST-RAND\00", align 1
@.str.4 = private unnamed_addr constant [8 x i8] c"fips=no\00", align 1
@.str.5 = private unnamed_addr constant [43 x i8] c"OSSL_LIB_CTX_load_config(NULL, configfile)\00", align 1
@.str.6 = private unnamed_addr constant [10 x i8] c"test_rand\00", align 1
@.str.7 = private unnamed_addr constant [18 x i8] c"test_rand_uniform\00", align 1
@.str.8 = private unnamed_addr constant [5 x i8] c"fips\00", align 1
@.str.9 = private unnamed_addr constant [18 x i8] c"fips_health_tests\00", align 1
@.str.10 = private unnamed_addr constant [26 x i8] c"test_rand_random_provider\00", align 1

; Function Attrs: nounwind uwtable
define dso_local i32 @setup_tests() #0 {
  %1 = alloca i32, align 4
  %2 = alloca ptr, align 8
  %3 = alloca i32, align 4
  call void @llvm.lifetime.start.p0(i64 8, ptr %2) #8
  %4 = call ptr @test_get_argument(i64 noundef 0)
  store ptr %4, ptr %2, align 8, !tbaa !4
  %5 = call i32 @test_ptr(ptr noundef @.str, i32 noundef 251, ptr noundef @.str.1, ptr noundef %4)
  %6 = icmp ne i32 %5, 0
  br i1 %6, label %7, label %23

7:                                                ; preds = %0
  %8 = call i32 @RAND_set_DRBG_type(ptr noundef null, ptr noundef @.str.3, ptr noundef @.str.4, ptr noundef null, ptr noundef null)
  %9 = icmp ne i32 %8, 0
  %10 = zext i1 %9 to i32
  %11 = call i32 @test_true(ptr noundef @.str, i32 noundef 253, ptr noundef @.str.2, i32 noundef %10)
  %12 = icmp ne i32 %11, 0
  br i1 %12, label %13, label %23

13:                                               ; preds = %7
  %14 = call i32 @fips_provider_version_ge(ptr noundef null, i32 noundef 3, i32 noundef 0, i32 noundef 8)
  %15 = icmp ne i32 %14, 0
  br i1 %15, label %16, label %24

16:                                               ; preds = %13
  %17 = load ptr, ptr %2, align 8, !tbaa !4
  %18 = call i32 @OSSL_LIB_CTX_load_config(ptr noundef null, ptr noundef %17)
  %19 = icmp ne i32 %18, 0
  %20 = zext i1 %19 to i32
  %21 = call i32 @test_true(ptr noundef @.str, i32 noundef 255, ptr noundef @.str.5, i32 noundef %20)
  %22 = icmp ne i32 %21, 0
  br i1 %22, label %24, label %23

23:                                               ; preds = %16, %7, %0
  store i32 0, ptr %1, align 4
  store i32 1, ptr %3, align 4
  br label %32

24:                                               ; preds = %16, %13
  call void @add_test(ptr noundef @.str.6, ptr noundef @test_rand)
  call void @add_test(ptr noundef @.str.7, ptr noundef @test_rand_uniform)
  %25 = call i32 @OSSL_PROVIDER_available(ptr noundef null, ptr noundef @.str.8)
  %26 = icmp ne i32 %25, 0
  br i1 %26, label %27, label %31

27:                                               ; preds = %24
  %28 = call i32 @fips_provider_version_ge(ptr noundef null, i32 noundef 3, i32 noundef 4, i32 noundef 0)
  %29 = icmp ne i32 %28, 0
  br i1 %29, label %30, label %31

30:                                               ; preds = %27
  call void @add_test(ptr noundef @.str.9, ptr noundef @fips_health_tests)
  br label %31

31:                                               ; preds = %30, %27, %24
  call void @add_test(ptr noundef @.str.10, ptr noundef @test_rand_random_provider)
  store i32 1, ptr %1, align 4
  store i32 1, ptr %3, align 4
  br label %32

32:                                               ; preds = %31, %23
  call void @llvm.lifetime.end.p0(i64 8, ptr %2) #8
  %33 = load i32, ptr %1, align 4
  ret i32 %33
}