; Function Attrs: nounwind uwtable
define dso_local range(i32 0, 2) i32 @setup_tests() local_unnamed_addr #0 {
  %1 = tail call ptr @test_get_argument(i64 noundef 0) #11
  %2 = tail call i32 @test_ptr(ptr noundef nonnull @.str, i32 noundef 251, ptr noundef nonnull @.str.1, ptr noundef %1) #11
  %.not = icmp eq i32 %2, 0
  br i1 %.not, label %21, label %3

3:                                                ; preds = %0
  %4 = tail call i32 @RAND_set_DRBG_type(ptr noundef null, ptr noundef nonnull @.str.3, ptr noundef nonnull @.str.4, ptr noundef null, ptr noundef null) #11
  %5 = icmp ne i32 %4, 0
  %6 = zext i1 %5 to i32
  %7 = tail call i32 @test_true(ptr noundef nonnull @.str, i32 noundef 253, ptr noundef nonnull @.str.2, i32 noundef %6) #11
  %.not1 = icmp eq i32 %7, 0
  br i1 %.not1, label %21, label %8

8:                                                ; preds = %3
  %9 = tail call i32 @fips_provider_version_ge(ptr noundef null, i32 noundef 3, i32 noundef 0, i32 noundef 8) #11
  %.not2 = icmp eq i32 %9, 0
  br i1 %.not2, label %15, label %10

10:                                               ; preds = %8
  %11 = tail call i32 @OSSL_LIB_CTX_load_config(ptr noundef null, ptr noundef %1) #11
  %12 = icmp ne i32 %11, 0
  %13 = zext i1 %12 to i32
  %14 = tail call i32 @test_true(ptr noundef nonnull @.str, i32 noundef 255, ptr noundef nonnull @.str.5, i32 noundef %13) #11
  %.not3 = icmp eq i32 %14, 0
  br i1 %.not3, label %21, label %15

15:                                               ; preds = %10, %8
  tail call void @add_test(ptr noundef nonnull @.str.6, ptr noundef nonnull @test_rand) #11
  tail call void @add_test(ptr noundef nonnull @.str.7, ptr noundef nonnull @test_rand_uniform) #11
  %16 = tail call i32 @OSSL_PROVIDER_available(ptr noundef null, ptr noundef nonnull @.str.8) #11
  %.not4 = icmp eq i32 %16, 0
  br i1 %.not4, label %20, label %17

17:                                               ; preds = %15
  %18 = tail call i32 @fips_provider_version_ge(ptr noundef null, i32 noundef 3, i32 noundef 4, i32 noundef 0) #11
  %.not5 = icmp eq i32 %18, 0
  br i1 %.not5, label %20, label %19

19:                                               ; preds = %17
  tail call void @add_test(ptr noundef nonnull @.str.9, ptr noundef nonnull @fips_health_tests) #11
  br label %20

20:                                               ; preds = %19, %17, %15
  tail call void @add_test(ptr noundef nonnull @.str.10, ptr noundef nonnull @test_rand_random_provider) #11
  br label %21

21:                                               ; preds = %0, %3, %10, %20
  %.0 = phi i32 [ 1, %20 ], [ 0, %10 ], [ 0, %3 ], [ 0, %0 ]
  ret i32 %.0
}